target datalayout = "e-m:e-p270:32:32-p271:32:32-p272:64:64-i64:64-i128:128-f80:128-n8:16:32:64-S128"
target triple = "x86_64-unknown-linux-gnu"

%"class.grpc_core::ChannelArgs" = type { %"class.grpc_core::AVL" }
%"class.grpc_core::AVL" = type { %"class.grpc_core::RefCountedPtr.273" }
%"class.grpc_core::RefCountedPtr.273" = type { ptr }
%"struct.std::_Vector_base.528" = type { %"struct.std::_Vector_base<grpc_core::EndpointAddresses, std::allocator<grpc_core::EndpointAddresses>>::_Vector_impl" }
%"struct.std::_Vector_base<grpc_core::EndpointAddresses, std::allocator<grpc_core::EndpointAddresses>>::_Vector_impl" = type { %"struct.std::_Vector_base<grpc_core::EndpointAddresses, std::allocator<grpc_core::EndpointAddresses>>::_Vector_impl_data" }
%"struct.std::_Vector_base<grpc_core::EndpointAddresses, std::allocator<grpc_core::EndpointAddresses>>::_Vector_impl_data" = type { ptr, ptr, ptr }
%"union.absl::lts_20230802::functional_internal::VoidPtr" = type { ptr }
%class.anon.533 = type { ptr, ptr, ptr }
%"class.grpc_core::EndpointAddresses" = type { %"class.std::vector.534", %"class.grpc_core::ChannelArgs" }
%"class.std::vector.534" = type { %"struct.std::_Vector_base.535" }
%"struct.std::_Vector_base.535" = type { %"struct.std::_Vector_base<grpc_resolved_address, std::allocator<grpc_resolved_address>>::_Vector_impl" }
%"struct.std::_Vector_base<grpc_resolved_address, std::allocator<grpc_resolved_address>>::_Vector_impl" = type { %"struct.std::_Vector_base<grpc_resolved_address, std::allocator<grpc_resolved_address>>::_Vector_impl_data" }
%"struct.std::_Vector_base<grpc_resolved_address, std::allocator<grpc_resolved_address>>::_Vector_impl_data" = type { ptr, ptr, ptr }

; Function Attrs: mustprogress uwtable
define linkonce_odr noundef zeroext i1 @_ZNK9grpc_core17EndpointAddressesneERKS0_(ptr noundef nonnull align 8 dereferenceable(32) %this, ptr noundef nonnull align 8 dereferenceable(32) %other) #4 comdat align 2 {
entry:
  %this.addr = alloca ptr, align 8
  %other.addr = alloca ptr, align 8
  store ptr %this, ptr %this.addr, align 8
  store ptr %other, ptr %other.addr, align 8
  %this1 = load ptr, ptr %this.addr, align 8
  %0 = load ptr, ptr %other.addr, align 8
  %call = call noundef i32 @_ZNK9grpc_core17EndpointAddresses3CmpERKS0_(ptr noundef nonnull align 8 dereferenceable(32) %this1, ptr noundef nonnull align 8 dereferenceable(32) %0)
  %cmp = icmp ne i32 %call, 0
  ret i1 %cmp
}

; Function Attrs: mustprogress nounwind uwtable
define linkonce_odr noundef nonnull align 8 dereferenceable(32) ptr @_ZNSt6vectorIN9grpc_core17EndpointAddressesESaIS1_EEixEm(ptr noundef nonnull align 8 dereferenceable(24) %this, i64 noundef %__n) #5 comdat align 2 {
entry:
  %this.addr = alloca ptr, align 8
  %__n.addr = alloca i64, align 8
  store ptr %this, ptr %this.addr, align 8
  store i64 %__n, ptr %__n.addr, align 8
  %this1 = load ptr, ptr %this.addr, align 8
  %_M_impl = getelementptr inbounds %"struct.std::_Vector_base.528", ptr %this1, i32 0, i32 0
  %_M_start = getelementptr inbounds %"struct.std::_Vector_base<grpc_core::EndpointAddresses, std::allocator<grpc_core::EndpointAddresses>>::_Vector_impl_data", ptr %_M_impl, i32 0, i32 0
  %0 = load ptr, ptr %_M_start, align 8
  %1 = load i64, ptr %__n.addr, align 8
  %add.ptr = getelementptr inbounds %"class.grpc_core::EndpointAddresses", ptr %0, i64 %1
  ret ptr %add.ptr
}

; Function Attrs: mustprogress uwtable
define internal void @"_ZZN9grpc_core12_GLOBAL__N_114EndpointsEqualEN4absl12lts_202308028StatusOrISt10shared_ptrINS_25EndpointAddressesIteratorEEEES7_ENK3$_1clERKNS_17EndpointAddressesE"(ptr noundef nonnull align 8 dereferenceable(24) %this, ptr noundef nonnull align 8 dereferenceable(32) %endpoint) #4 align 2 {
entry:
  %this.addr = alloca ptr, align 8
  %endpoint.addr = alloca ptr, align 8
  store ptr %this, ptr %this.addr, align 8
  store ptr %endpoint, ptr %endpoint.addr, align 8
  %this1 = load ptr, ptr %this.addr, align 8
  %0 = load ptr, ptr %endpoint.addr, align 8
  %1 = getelementptr inbounds %class.anon.533, ptr %this1, i32 0, i32 0
  %2 = load ptr, ptr %1, align 8
  %3 = getelementptr inbounds %class.anon.533, ptr %this1, i32 0, i32 1
  %4 = load ptr, ptr %3, align 8
  %5 = load i64, ptr %4, align 8
  %inc = add i64 %5, 1
  store i64 %inc, ptr %4, align 8
  %call = call noundef nonnull align 8 dereferenceable(32) ptr @_ZNSt6vectorIN9grpc_core17EndpointAddressesESaIS1_EEixEm(ptr noundef nonnull align 8 dereferenceable(24) %2, i64 noundef %5) #3
  %call2 = call noundef zeroext i1 @_ZNK9grpc_core17EndpointAddressesneERKS0_(ptr noundef nonnull align 8 dereferenceable(32) %0, ptr noundef nonnull align 8 dereferenceable(32) %call)
  br i1 %call2, label %if.then, label %if.end

if.then:                                          ; preds = %entry
  %6 = getelementptr inbounds %class.anon.533, ptr %this1, i32 0, i32 2
  %7 = load ptr, ptr %6, align 8
  store i8 1, ptr %7, align 1
  br label %if.end

if.end:                                           ; preds = %if.then, %entry
  ret void
}

; Function Attrs: mustprogress uwtable
define internal void @"_ZSt13__invoke_implIvRKZN9grpc_core12_GLOBAL__N_114EndpointsEqualEN4absl12lts_202308028StatusOrISt10shared_ptrINS0_25EndpointAddressesIteratorEEEES8_E3$_1JRKNS0_17EndpointAddressesEEET_St14__invoke_otherOT0_DpOT1_"(ptr noundef nonnull align 8 dereferenceable(24) %__f, ptr noundef nonnull align 8 dereferenceable(32) %__args) #4 {
entry:
  %__f.addr = alloca ptr, align 8
  %__args.addr = alloca ptr, align 8
  store ptr %__f, ptr %__f.addr, align 8
  store ptr %__args, ptr %__args.addr, align 8
  %0 = load ptr, ptr %__f.addr, align 8
  %1 = load ptr, ptr %__args.addr, align 8
  call void @"_ZZN9grpc_core12_GLOBAL__N_114EndpointsEqualEN4absl12lts_202308028StatusOrISt10shared_ptrINS_25EndpointAddressesIteratorEEEES7_ENK3$_1clERKNS_17EndpointAddressesE"(ptr noundef nonnull align 8 dereferenceable(24) %0, ptr noundef nonnull align 8 dereferenceable(32) %1)
  ret void
}

; Function Attrs: mustprogress uwtable
define internal void @"_ZSt8__invokeIRKZN9grpc_core12_GLOBAL__N_114EndpointsEqualEN4absl12lts_202308028StatusOrISt10shared_ptrINS0_25EndpointAddressesIteratorEEEES8_E3$_1JRKNS0_17EndpointAddressesEEENSt15__invoke_resultIT_JDpT0_EE4typeEOSG_DpOSH_"(ptr noundef nonnull align 8 dereferenceable(24) %__fn, ptr noundef nonnull align 8 dereferenceable(32) %__args) #4 {
entry:
  %__fn.addr = alloca ptr, align 8
  %__args.addr = alloca ptr, align 8
  store ptr %__fn, ptr %__fn.addr, align 8
  store ptr %__args, ptr %__args.addr, align 8
  %0 = load ptr, ptr %__fn.addr, align 8
  %1 = load ptr, ptr %__args.addr, align 8
  call void @"_ZSt13__invoke_implIvRKZN9grpc_core12_GLOBAL__N_114EndpointsEqualEN4absl12lts_202308028StatusOrISt10shared_ptrINS0_25EndpointAddressesIteratorEEEES8_E3$_1JRKNS0_17EndpointAddressesEEET_St14__invoke_otherOT0_DpOT1_"(ptr noundef nonnull align 8 dereferenceable(24) %0, ptr noundef nonnull align 8 dereferenceable(32) %1)
  ret void
}

; Function Attrs: mustprogress uwtable
define internal void @"_ZSt6invokeIRKZN9grpc_core12_GLOBAL__N_114EndpointsEqualEN4absl12lts_202308028StatusOrISt10shared_ptrINS0_25EndpointAddressesIteratorEEEES8_E3$_1JRKNS0_17EndpointAddressesEEENSt13invoke_resultIT_JDpT0_EE4typeEOSG_DpOSH_"(ptr noundef nonnull align 8 dereferenceable(24) %__fn, ptr noundef nonnull align 8 dereferenceable(32) %__args) #4 {
entry:
  %__fn.addr = alloca ptr, align 8
  %__args.addr = alloca ptr, align 8
  store ptr %__fn, ptr %__fn.addr, align 8
  store ptr %__args, ptr %__args.addr, align 8
  %0 = load ptr, ptr %__fn.addr, align 8
  %1 = load ptr, ptr %__args.addr, align 8
  call void @"_ZSt8__invokeIRKZN9grpc_core12_GLOBAL__N_114EndpointsEqualEN4absl12lts_202308028StatusOrISt10shared_ptrINS0_25EndpointAddressesIteratorEEEES8_E3$_1JRKNS0_17EndpointAddressesEEENSt15__invoke_resultIT_JDpT0_EE4typeEOSG_DpOSH_"(ptr noundef nonnull align 8 dereferenceable(24) %0, ptr noundef nonnull align 8 dereferenceable(32) %1)
  ret void
}

; Function Attrs: mustprogress uwtable
define internal void @"_ZN4absl12lts_2023080219functional_internal12InvokeObjectIZN9grpc_core12_GLOBAL__N_114EndpointsEqualENS0_8StatusOrISt10shared_ptrINS3_25EndpointAddressesIteratorEEEES9_E3$_1vJRKNS3_17EndpointAddressesEEEET0_NS1_7VoidPtrEDpNS1_8ForwardTIT1_E4typeE"(ptr %ptr.coerce, ptr noundef nonnull align 8 dereferenceable(32) %args) #4 {
entry:
  %ptr = alloca %"union.absl::lts_20230802::functional_internal::VoidPtr", align 8
  %args.addr = alloca ptr, align 8
  %o = alloca ptr, align 8
  %coerce.dive = getelementptr inbounds %"union.absl::lts_20230802::functional_internal::VoidPtr", ptr %ptr, i32 0, i32 0
  store ptr %ptr.coerce, ptr %coerce.dive, align 8
  store ptr %args, ptr %args.addr, align 8
  %0 = load ptr, ptr %ptr, align 8
  store ptr %0, ptr %o, align 8
  %1 = load ptr, ptr %o, align 8
  %2 = load ptr, ptr %args.addr, align 8
  call void @"_ZSt6invokeIRKZN9grpc_core12_GLOBAL__N_114EndpointsEqualEN4absl12lts_202308028StatusOrISt10shared_ptrINS0_25EndpointAddressesIteratorEEEES8_E3$_1JRKNS0_17EndpointAddressesEEENSt13invoke_resultIT_JDpT0_EE4typeEOSG_DpOSH_"(ptr noundef nonnull align 8 dereferenceable(24) %1, ptr noundef nonnull align 8 dereferenceable(32) %2)
  ret void
}