; Function Attrs: mustprogress uwtable
define internal void @"_ZN4absl12lts_2023080219functional_internal12InvokeObjectIZN9grpc_core12_GLOBAL__N_114EndpointsEqualENS0_8StatusOrISt10shared_ptrINS3_25EndpointAddressesIteratorEEEES9_E3$_1vJRKNS3_17EndpointAddressesEEEET0_NS1_7VoidPtrEDpNS1_8ForwardTIT1_E4typeE"(ptr nocapture readonly %ptr.coerce, ptr noundef nonnull align 8 dereferenceable(32) %args) #3 {
entry:
  %0 = load ptr, ptr %ptr.coerce, align 8
  %1 = getelementptr inbounds i8, ptr %ptr.coerce, i64 8
  %2 = load ptr, ptr %1, align 8
  %3 = load i64, ptr %2, align 8
  %inc.i.i.i.i = add i64 %3, 1
  store i64 %inc.i.i.i.i, ptr %2, align 8
  %4 = load ptr, ptr %0, align 8
  %add.ptr.i.i.i.i.i = getelementptr inbounds %"class.grpc_core::EndpointAddresses", ptr %4, i64 %3
  %call.i.i.i.i.i = tail call noundef i32 @_ZNK9grpc_core17EndpointAddresses3CmpERKS0_(ptr noundef nonnull align 8 dereferenceable(32) %args, ptr noundef nonnull align 8 dereferenceable(32) %add.ptr.i.i.i.i.i)
  %cmp.i.not.i.i.i.i = icmp eq i32 %call.i.i.i.i.i, 0
  br i1 %cmp.i.not.i.i.i.i, label %"_ZSt6invokeIRKZN9grpc_core12_GLOBAL__N_114EndpointsEqualEN4absl12lts_202308028StatusOrISt10shared_ptrINS0_25EndpointAddressesIteratorEEEES8_E3$_1JRKNS0_17EndpointAddressesEEENSt13invoke_resultIT_JDpT0_EE4typeEOSG_DpOSH_.exit", label %if.then.i.i.i.i

if.then.i.i.i.i:                                  ; preds = %entry
  %5 = getelementptr inbounds i8, ptr %ptr.coerce, i64 16
  %6 = load ptr, ptr %5, align 8
  store i8 1, ptr %6, align 1
  br label %"_ZSt6invokeIRKZN9grpc_core12_GLOBAL__N_114EndpointsEqualEN4absl12lts_202308028StatusOrISt10shared_ptrINS0_25EndpointAddressesIteratorEEEES8_E3$_1JRKNS0_17EndpointAddressesEEENSt13invoke_resultIT_JDpT0_EE4typeEOSG_DpOSH_.exit"

"_ZSt6invokeIRKZN9grpc_core12_GLOBAL__N_114EndpointsEqualEN4absl12lts_202308028StatusOrISt10shared_ptrINS0_25EndpointAddressesIteratorEEEES8_E3$_1JRKNS0_17EndpointAddressesEEENSt13invoke_resultIT_JDpT0_EE4typeEOSG_DpOSH_.exit": ; preds = %entry, %if.then.i.i.i.i
  ret void
}